target datalayout = "e-m:e-p270:32:32-p271:32:32-p272:64:64-i64:64-i128:128-f80:128-n8:16:32:64-S128"
target triple = "x86_64-pc-linux-gnu"

%"struct.seq_util::rex::info" = type { i32, i8, i32, i32 }

; Function Attrs: mustprogress nounwind uwtable
define linkonce_odr hidden void @_ZN8seq_util3rex4infoC2Eb5lboolj(ptr noundef nonnull align 4 dereferenceable(16) %0, i1 noundef zeroext %1, i32 noundef %2, i32 noundef %3) unnamed_addr #6 comdat align 2 {
  %5 = alloca ptr, align 8
  %6 = alloca i8, align 1
  %7 = alloca i32, align 4
  %8 = alloca i32, align 4
  store ptr %0, ptr %5, align 8, !tbaa !301
  %9 = zext i1 %1 to i8
  store i8 %9, ptr %6, align 1, !tbaa !77
  store i32 %2, ptr %7, align 4, !tbaa !285
  store i32 %3, ptr %8, align 4, !tbaa !55
  %10 = load ptr, ptr %5, align 8
  %11 = getelementptr inbounds nuw %"struct.seq_util::rex::info", ptr %10, i32 0, i32 0
  store i32 1, ptr %11, align 4, !tbaa !302
  %12 = getelementptr inbounds nuw %"struct.seq_util::rex::info", ptr %10, i32 0, i32 1
  %13 = load i8, ptr %6, align 1, !tbaa !77, !range !78, !noundef !79
  %14 = trunc i8 %13 to i1
  %15 = zext i1 %14 to i8
  store i8 %15, ptr %12, align 4, !tbaa !303
  %16 = getelementptr inbounds nuw %"struct.seq_util::rex::info", ptr %10, i32 0, i32 2
  %17 = load i32, ptr %7, align 4, !tbaa !285
  store i32 %17, ptr %16, align 4, !tbaa !304
  %18 = getelementptr inbounds nuw %"struct.seq_util::rex::info", ptr %10, i32 0, i32 3
  %19 = load i32, ptr %8, align 4, !tbaa !55
  store i32 %19, ptr %18, align 4, !tbaa !283
  ret void
}

; Function Attrs: mustprogress nounwind uwtable
define linkonce_odr hidden noundef zeroext i1 @_ZNK8seq_util3rex4info8is_knownEv(ptr noundef nonnull align 4 dereferenceable(16) %0) #6 comdat align 2 {
  %2 = alloca ptr, align 8
  store ptr %0, ptr %2, align 8, !tbaa !301
  %3 = load ptr, ptr %2, align 8
  %4 = getelementptr inbounds nuw %"struct.seq_util::rex::info", ptr %3, i32 0, i32 0
  %5 = load i32, ptr %4, align 4, !tbaa !302
  %6 = icmp eq i32 %5, 1
  ret i1 %6
}

; Function Attrs: mustprogress uwtable
define hidden { i64, i64 } @_ZNK8seq_util3rex4info10complementEv(ptr noundef nonnull align 4 dereferenceable(16) %0) #4 align 2 {
  %2 = alloca %"struct.seq_util::rex::info", align 4
  %3 = alloca ptr, align 8
  %4 = alloca i32, align 4
  %5 = alloca i32, align 4
  store ptr %0, ptr %3, align 8, !tbaa !301
  %6 = load ptr, ptr %3, align 8
  %7 = call noundef zeroext i1 @_ZNK8seq_util3rex4info8is_knownEv(ptr noundef nonnull align 4 dereferenceable(16) %6)
  br i1 %7, label %8, label %28

8:                                                ; preds = %1
  call void @llvm.lifetime.start.p0(i64 4, ptr %4) #3
  %9 = getelementptr inbounds nuw %"struct.seq_util::rex::info", ptr %6, i32 0, i32 2
  %10 = load i32, ptr %9, align 4, !tbaa !304
  %11 = icmp eq i32 %10, 1
  br i1 %11, label %12, label %13

12:                                               ; preds = %8
  br label %18

13:                                               ; preds = %8
  %14 = getelementptr inbounds nuw %"struct.seq_util::rex::info", ptr %6, i32 0, i32 2
  %15 = load i32, ptr %14, align 4, !tbaa !304
  %16 = icmp eq i32 %15, -1
  %17 = select i1 %16, i32 1, i32 0
  br label %18

18:                                               ; preds = %13, %12
  %19 = phi i32 [ -1, %12 ], [ %17, %13 ]
  store i32 %19, ptr %4, align 4, !tbaa !285
  call void @llvm.lifetime.start.p0(i64 4, ptr %5) #3
  %20 = load i32, ptr %4, align 4, !tbaa !285
  %21 = icmp eq i32 %20, -1
  %22 = select i1 %21, i32 1, i32 0
  store i32 %22, ptr %5, align 4, !tbaa !55
  %23 = getelementptr inbounds nuw %"struct.seq_util::rex::info", ptr %6, i32 0, i32 1
  %24 = load i8, ptr %23, align 4, !tbaa !303, !range !78, !noundef !79
  %25 = trunc i8 %24 to i1
  %26 = load i32, ptr %4, align 4, !tbaa !285
  %27 = load i32, ptr %5, align 4, !tbaa !55
  call void @_ZN8seq_util3rex4infoC2Eb5lboolj(ptr noundef nonnull align 4 dereferenceable(16) %2, i1 noundef zeroext %25, i32 noundef %26, i32 noundef %27)
  call void @llvm.lifetime.end.p0(i64 4, ptr %5) #3
  call void @llvm.lifetime.end.p0(i64 4, ptr %4) #3
  br label %29

28:                                               ; preds = %1
  call void @llvm.memcpy.p0.p0.i64(ptr align 4 %2, ptr align 4 %6, i64 16, i1 false), !tbaa.struct !284
  br label %29

29:                                               ; preds = %28, %18
  %30 = load { i64, i64 }, ptr %2, align 4
  ret { i64, i64 } %30
}