; Function Attrs: mustprogress nofree norecurse nosync nounwind willreturn memory(argmem: read) uwtable
define hidden { i64, i64 } @_ZNK8seq_util3rex4info10complementEv(ptr noundef nonnull readonly align 4 captures(none) dereferenceable(16) %0) local_unnamed_addr #14 align 2 {
  %2 = load i32, ptr %0, align 4, !tbaa !208
  %3 = icmp eq i32 %2, 1
  br i1 %3, label %4, label %12

4:                                                ; preds = %1
  %5 = getelementptr inbounds nuw i8, ptr %0, i64 8
  %6 = load i32, ptr %5, align 4, !tbaa !210
  %7 = icmp eq i32 %6, 1
  %8 = icmp eq i32 %6, -1
  %9 = zext i1 %8 to i64
  %10 = getelementptr inbounds nuw i8, ptr %0, i64 4
  %11 = load i8, ptr %10, align 4, !tbaa !209, !range !81, !noundef !82
  %.sroa.4.12.insert.insert = select i1 %7, i64 8589934591, i64 %9
  br label %14

12:                                               ; preds = %1
  %.sroa.0.0.copyload = load i64, ptr %0, align 4
  %.sroa.0.sroa.3.0.extract.shift = lshr i64 %.sroa.0.0.copyload, 32
  %.sroa.0.sroa.3.0.extract.trunc = trunc i64 %.sroa.0.sroa.3.0.extract.shift to i8
  %.sroa.0.sroa.4.0.extract.shift = and i64 %.sroa.0.0.copyload, -1099511627776
  %.sroa.4.0..sroa_idx = getelementptr inbounds nuw i8, ptr %0, i64 8
  %.sroa.4.0.copyload = load i64, ptr %.sroa.4.0..sroa_idx, align 4
  %13 = and i64 %.sroa.0.0.copyload, 4294967295
  br label %14

14:                                               ; preds = %12, %4
  %.sroa.0.sroa.4.sroa.0.0 = phi i64 [ 0, %4 ], [ %.sroa.0.sroa.4.0.extract.shift, %12 ]
  %.sroa.0.sroa.3.0 = phi i8 [ %11, %4 ], [ %.sroa.0.sroa.3.0.extract.trunc, %12 ]
  %.sroa.0.sroa.0.0 = phi i64 [ 1, %4 ], [ %13, %12 ]
  %.sroa.4.0 = phi i64 [ %.sroa.4.12.insert.insert, %4 ], [ %.sroa.4.0.copyload, %12 ]
  %.sroa.0.sroa.3.0.insert.ext = zext i8 %.sroa.0.sroa.3.0 to i64
  %.sroa.0.sroa.3.0.insert.shift = shl nuw nsw i64 %.sroa.0.sroa.3.0.insert.ext, 32
  %.sroa.0.sroa.3.0.insert.insert = or disjoint i64 %.sroa.0.sroa.3.0.insert.shift, %.sroa.0.sroa.4.sroa.0.0
  %.sroa.0.sroa.0.0.insert.insert = or disjoint i64 %.sroa.0.sroa.3.0.insert.insert, %.sroa.0.sroa.0.0
  %.fca.0.insert = insertvalue { i64, i64 } poison, i64 %.sroa.0.sroa.0.0.insert.insert, 0
  %.fca.1.insert = insertvalue { i64, i64 } %.fca.0.insert, i64 %.sroa.4.0, 1
  ret { i64, i64 } %.fca.1.insert
}